target datalayout = "e-m:e-p270:32:32-p271:32:32-p272:64:64-i64:64-i128:128-f80:128-n8:16:32:64-S128"
target triple = "x86_64-pc-linux-gnu"

%struct.HuffmanCodebook = type { i32, i32, i32, i32 }
%struct.VLCInitState = type { ptr, i32 }

@__const.atrac9_init_static.state = private unnamed_addr constant { ptr, i32, [4 x i8] } { ptr @atrac9_init_static.vlc_buf, i32 24812, [4 x i8] zeroinitializer }, align 8
@sf_vlc = internal global [2 x [8 x ptr]] zeroinitializer, align 16
@coeff_vlc = internal global [2 x [8 x [4 x ptr]]] zeroinitializer, align 16

; Function Attrs: cold nounwind optsize uwtable
define internal ptr @atrac9_init_vlc(ptr noundef %0, i32 noundef %1, i32 noundef %2, ptr noundef %3, i32 noundef %4) #0 {
  %6 = alloca ptr, align 8
  %7 = alloca i32, align 4
  %8 = alloca i32, align 4
  %9 = alloca ptr, align 8
  %10 = alloca i32, align 4
  %11 = alloca ptr, align 8
  store ptr %0, ptr %6, align 8, !tbaa !101
  store i32 %1, ptr %7, align 4, !tbaa !41
  store i32 %2, ptr %8, align 4, !tbaa !41
  store ptr %3, ptr %9, align 8, !tbaa !103
  store i32 %4, ptr %10, align 4, !tbaa !41
  call void @llvm.lifetime.start.p0(i64 8, ptr %11) #11
  %12 = load ptr, ptr %9, align 8, !tbaa !103
  %13 = load ptr, ptr %12, align 8, !tbaa !83
  store ptr %13, ptr %11, align 8, !tbaa !83
  %14 = load i32, ptr %8, align 4, !tbaa !41
  %15 = load ptr, ptr %9, align 8, !tbaa !103
  %16 = load ptr, ptr %15, align 8, !tbaa !83
  %17 = sext i32 %14 to i64
  %18 = getelementptr inbounds [2 x i8], ptr %16, i64 %17
  store ptr %18, ptr %15, align 8, !tbaa !83
  %19 = load ptr, ptr %6, align 8, !tbaa !101
  %20 = load i32, ptr %7, align 4, !tbaa !41
  %21 = load i32, ptr %8, align 4, !tbaa !41
  %22 = load ptr, ptr %11, align 8, !tbaa !83
  %23 = getelementptr inbounds [2 x i8], ptr %22, i64 0
  %24 = getelementptr inbounds [2 x i8], ptr %23, i64 0, i64 1
  %25 = load ptr, ptr %11, align 8, !tbaa !83
  %26 = getelementptr inbounds [2 x i8], ptr %25, i64 0
  %27 = getelementptr inbounds [2 x i8], ptr %26, i64 0, i64 0
  %28 = load i32, ptr %10, align 4, !tbaa !41
  %29 = call ptr @ff_vlc_init_tables_from_lengths(ptr noundef %19, i32 noundef %20, i32 noundef %21, ptr noundef %24, i32 noundef 2, ptr noundef %27, i32 noundef 2, i32 noundef 1, i32 noundef %28, i32 noundef 0)
  call void @llvm.lifetime.end.p0(i64 8, ptr %11) #11
  ret ptr %29
}

; Function Attrs: cold nounwind optsize uwtable
define internal void @atrac9_init_static() #0 {
  %1 = alloca %struct.VLCInitState, align 8
  %2 = alloca ptr, align 8
  %3 = alloca i32, align 4
  %4 = alloca ptr, align 8
  %5 = alloca i32, align 4
  %6 = alloca ptr, align 8
  %7 = alloca i32, align 4
  %8 = alloca i32, align 4
  %9 = alloca i32, align 4
  %10 = alloca i32, align 4
  %11 = alloca ptr, align 8
  call void @llvm.lifetime.start.p0(i64 16, ptr %1) #11
  call void @llvm.memcpy.p0.p0.i64(ptr align 8 %1, ptr align 8 @__const.atrac9_init_static.state, i64 16, i1 false)
  call void @llvm.lifetime.start.p0(i64 8, ptr %2) #11
  store ptr @at9_sfb_a_tab, ptr %2, align 8, !tbaa !83
  call void @llvm.lifetime.start.p0(i64 4, ptr %3) #11
  store i32 1, ptr %3, align 4, !tbaa !41
  br label %12

12:                                               ; preds = %27, %0
  %13 = load i32, ptr %3, align 4, !tbaa !41
  %14 = icmp slt i32 %13, 7
  br i1 %14, label %16, label %15

15:                                               ; preds = %12
  call void @llvm.lifetime.end.p0(i64 4, ptr %3) #11
  br label %30

16:                                               ; preds = %12
  call void @llvm.lifetime.start.p0(i64 8, ptr %4) #11
  %17 = load i32, ptr %3, align 4, !tbaa !41
  %18 = sext i32 %17 to i64
  %19 = getelementptr inbounds [7 x %struct.HuffmanCodebook], ptr @at9_huffman_sf_unsigned, i64 0, i64 %18
  store ptr %19, ptr %4, align 8, !tbaa !88
  %20 = load ptr, ptr %4, align 8, !tbaa !88
  %21 = getelementptr inbounds nuw %struct.HuffmanCodebook, ptr %20, i32 0, i32 0
  %22 = load i32, ptr %21, align 4, !tbaa !90
  %23 = call ptr @atrac9_init_vlc(ptr noundef %1, i32 noundef 8, i32 noundef %22, ptr noundef %2, i32 noundef 0) #13
  %24 = load i32, ptr %3, align 4, !tbaa !41
  %25 = sext i32 %24 to i64
  %26 = getelementptr inbounds [8 x ptr], ptr @sf_vlc, i64 0, i64 %25
  store ptr %23, ptr %26, align 8, !tbaa !92
  call void @llvm.lifetime.end.p0(i64 8, ptr %4) #11
  br label %27

27:                                               ; preds = %16
  %28 = load i32, ptr %3, align 4, !tbaa !41
  %29 = add nsw i32 %28, 1
  store i32 %29, ptr %3, align 4, !tbaa !41
  br label %12, !llvm.loop !94

30:                                               ; preds = %15
  store ptr @at9_sfb_b_tab, ptr %2, align 8, !tbaa !83
  call void @llvm.lifetime.start.p0(i64 4, ptr %5) #11
  store i32 2, ptr %5, align 4, !tbaa !41
  br label %31

31:                                               ; preds = %46, %30
  %32 = load i32, ptr %5, align 4, !tbaa !41
  %33 = icmp slt i32 %32, 6
  br i1 %33, label %35, label %34

34:                                               ; preds = %31
  call void @llvm.lifetime.end.p0(i64 4, ptr %5) #11
  br label %49

35:                                               ; preds = %31
  call void @llvm.lifetime.start.p0(i64 8, ptr %6) #11
  %36 = load i32, ptr %5, align 4, !tbaa !41
  %37 = sext i32 %36 to i64
  %38 = getelementptr inbounds [6 x %struct.HuffmanCodebook], ptr @at9_huffman_sf_signed, i64 0, i64 %37
  store ptr %38, ptr %6, align 8, !tbaa !88
  %39 = load ptr, ptr %6, align 8, !tbaa !88
  %40 = getelementptr inbounds nuw %struct.HuffmanCodebook, ptr %39, i32 0, i32 0
  %41 = load i32, ptr %40, align 4, !tbaa !90
  %42 = call ptr @atrac9_init_vlc(ptr noundef %1, i32 noundef 8, i32 noundef %41, ptr noundef %2, i32 noundef -16) #13
  %43 = load i32, ptr %5, align 4, !tbaa !41
  %44 = sext i32 %43 to i64
  %45 = getelementptr inbounds [8 x ptr], ptr getelementptr inbounds ([2 x [8 x ptr]], ptr @sf_vlc, i64 0, i64 1), i64 0, i64 %44
  store ptr %42, ptr %45, align 8, !tbaa !92
  call void @llvm.lifetime.end.p0(i64 8, ptr %6) #11
  br label %46

46:                                               ; preds = %35
  %47 = load i32, ptr %5, align 4, !tbaa !41
  %48 = add nsw i32 %47, 1
  store i32 %48, ptr %5, align 4, !tbaa !41
  br label %31, !llvm.loop !95

49:                                               ; preds = %34
  store ptr @at9_coeffs_tab, ptr %2, align 8, !tbaa !83
  call void @llvm.lifetime.start.p0(i64 4, ptr %7) #11
  store i32 0, ptr %7, align 4, !tbaa !41
  br label %50

50:                                               ; preds = %96, %49
  %51 = load i32, ptr %7, align 4, !tbaa !41
  %52 = icmp slt i32 %51, 2
  br i1 %52, label %54, label %53

53:                                               ; preds = %50
  store i32 8, ptr %8, align 4
  call void @llvm.lifetime.end.p0(i64 4, ptr %7) #11
  br label %99

54:                                               ; preds = %50
  call void @llvm.lifetime.start.p0(i64 4, ptr %9) #11
  store i32 2, ptr %9, align 4, !tbaa !41
  br label %55

55:                                               ; preds = %92, %54
  %56 = load i32, ptr %9, align 4, !tbaa !41
  %57 = icmp slt i32 %56, 8
  br i1 %57, label %59, label %58

58:                                               ; preds = %55
  store i32 11, ptr %8, align 4
  call void @llvm.lifetime.end.p0(i64 4, ptr %9) #11
  br label %95

59:                                               ; preds = %55
  call void @llvm.lifetime.start.p0(i64 4, ptr %10) #11
  %60 = load i32, ptr %7, align 4, !tbaa !41
  store i32 %60, ptr %10, align 4, !tbaa !41
  br label %61

61:                                               ; preds = %88, %59
  %62 = load i32, ptr %10, align 4, !tbaa !41
  %63 = icmp slt i32 %62, 4
  br i1 %63, label %65, label %64

64:                                               ; preds = %61
  store i32 14, ptr %8, align 4
  call void @llvm.lifetime.end.p0(i64 4, ptr %10) #11
  br label %91

65:                                               ; preds = %61
  call void @llvm.lifetime.start.p0(i64 8, ptr %11) #11
  %66 = load i32, ptr %7, align 4, !tbaa !41
  %67 = sext i32 %66 to i64
  %68 = getelementptr inbounds [2 x [8 x [4 x %struct.HuffmanCodebook]]], ptr @at9_huffman_coeffs, i64 0, i64 %67
  %69 = load i32, ptr %9, align 4, !tbaa !41
  %70 = sext i32 %69 to i64
  %71 = getelementptr inbounds [8 x [4 x %struct.HuffmanCodebook]], ptr %68, i64 0, i64 %70
  %72 = load i32, ptr %10, align 4, !tbaa !41
  %73 = sext i32 %72 to i64
  %74 = getelementptr inbounds [4 x %struct.HuffmanCodebook], ptr %71, i64 0, i64 %73
  store ptr %74, ptr %11, align 8, !tbaa !88
  %75 = load ptr, ptr %11, align 8, !tbaa !88
  %76 = getelementptr inbounds nuw %struct.HuffmanCodebook, ptr %75, i32 0, i32 0
  %77 = load i32, ptr %76, align 4, !tbaa !90
  %78 = call ptr @atrac9_init_vlc(ptr noundef %1, i32 noundef 9, i32 noundef %77, ptr noundef %2, i32 noundef 0) #13
  %79 = load i32, ptr %7, align 4, !tbaa !41
  %80 = sext i32 %79 to i64
  %81 = getelementptr inbounds [2 x [8 x [4 x ptr]]], ptr @coeff_vlc, i64 0, i64 %80
  %82 = load i32, ptr %9, align 4, !tbaa !41
  %83 = sext i32 %82 to i64
  %84 = getelementptr inbounds [8 x [4 x ptr]], ptr %81, i64 0, i64 %83
  %85 = load i32, ptr %10, align 4, !tbaa !41
  %86 = sext i32 %85 to i64
  %87 = getelementptr inbounds [4 x ptr], ptr %84, i64 0, i64 %86
  store ptr %78, ptr %87, align 8, !tbaa !92
  call void @llvm.lifetime.end.p0(i64 8, ptr %11) #11
  br label %88

88:                                               ; preds = %65
  %89 = load i32, ptr %10, align 4, !tbaa !41
  %90 = add nsw i32 %89, 1
  store i32 %90, ptr %10, align 4, !tbaa !41
  br label %61, !llvm.loop !96

91:                                               ; preds = %64
  br label %92

92:                                               ; preds = %91
  %93 = load i32, ptr %9, align 4, !tbaa !41
  %94 = add nsw i32 %93, 1
  store i32 %94, ptr %9, align 4, !tbaa !41
  br label %55, !llvm.loop !97

95:                                               ; preds = %58
  br label %96

96:                                               ; preds = %95
  %97 = load i32, ptr %7, align 4, !tbaa !41
  %98 = add nsw i32 %97, 1
  store i32 %98, ptr %7, align 4, !tbaa !41
  br label %50, !llvm.loop !98

99:                                               ; preds = %53
  call void @llvm.lifetime.end.p0(i64 8, ptr %2) #11
  call void @llvm.lifetime.end.p0(i64 16, ptr %1) #11
  ret void
}