; Function Attrs: cold nounwind optsize uwtable
define internal void @atrac9_init_static() #0 {
  %1 = alloca %struct.VLCInitState, align 8
  call void @llvm.lifetime.start.p0(i64 16, ptr nonnull %1) #9
  call void @llvm.memcpy.p0.p0.i64(ptr noundef nonnull align 8 dereferenceable(16) %1, ptr noundef nonnull align 8 dereferenceable(16) @__const.atrac9_init_static.state, i64 16, i1 false)
  br label %2

2:                                                ; preds = %0, %2
  %indvars.iv = phi i64 [ 1, %0 ], [ %indvars.iv.next, %2 ]
  %.02933 = phi ptr [ @at9_sfb_a_tab, %0 ], [ %6, %2 ]
  %3 = getelementptr inbounds nuw [7 x %struct.HuffmanCodebook], ptr @at9_huffman_sf_unsigned, i64 0, i64 %indvars.iv
  %4 = load i32, ptr %3, align 16, !tbaa !156
  %5 = sext i32 %4 to i64
  %6 = getelementptr inbounds [2 x i8], ptr %.02933, i64 %5
  %7 = getelementptr inbounds nuw i8, ptr %.02933, i64 1
  %8 = call ptr @ff_vlc_init_tables_from_lengths(ptr noundef nonnull %1, i32 noundef 8, i32 noundef %4, ptr noundef nonnull %7, i32 noundef 2, ptr noundef nonnull %.02933, i32 noundef 2, i32 noundef 1, i32 noundef 0, i32 noundef 0) #9
  %9 = getelementptr inbounds nuw [8 x ptr], ptr @sf_vlc, i64 0, i64 %indvars.iv
  store ptr %8, ptr %9, align 8, !tbaa !94
  %indvars.iv.next = add nuw nsw i64 %indvars.iv, 1
  %exitcond.not = icmp eq i64 %indvars.iv.next, 7
  br i1 %exitcond.not, label %.preheader32, label %2, !llvm.loop !157

.preheader32:                                     ; preds = %2, %.preheader32
  %indvars.iv44 = phi i64 [ %indvars.iv.next45, %.preheader32 ], [ 2, %2 ]
  %.135 = phi ptr [ %13, %.preheader32 ], [ @at9_sfb_b_tab, %2 ]
  %10 = getelementptr inbounds nuw [6 x %struct.HuffmanCodebook], ptr @at9_huffman_sf_signed, i64 0, i64 %indvars.iv44
  %11 = load i32, ptr %10, align 16, !tbaa !156
  %12 = sext i32 %11 to i64
  %13 = getelementptr inbounds [2 x i8], ptr %.135, i64 %12
  %14 = getelementptr inbounds nuw i8, ptr %.135, i64 1
  %15 = call ptr @ff_vlc_init_tables_from_lengths(ptr noundef nonnull %1, i32 noundef 8, i32 noundef %11, ptr noundef nonnull %14, i32 noundef 2, ptr noundef nonnull %.135, i32 noundef 2, i32 noundef 1, i32 noundef -16, i32 noundef 0) #9
  %16 = getelementptr inbounds nuw [8 x ptr], ptr getelementptr inbounds nuw (i8, ptr @sf_vlc, i64 64), i64 0, i64 %indvars.iv44
  store ptr %15, ptr %16, align 8, !tbaa !94
  %indvars.iv.next45 = add nuw nsw i64 %indvars.iv44, 1
  %exitcond47.not = icmp eq i64 %indvars.iv.next45, 6
  br i1 %exitcond47.not, label %.preheader30, label %.preheader32, !llvm.loop !158

.preheader30:                                     ; preds = %.preheader32, %19
  %17 = phi i1 [ false, %19 ], [ true, %.preheader32 ]
  %indvars.iv48 = phi i64 [ 1, %19 ], [ 0, %.preheader32 ]
  %.241 = phi ptr [ %24, %19 ], [ @at9_coeffs_tab, %.preheader32 ]
  br label %.preheader

18:                                               ; preds = %19
  call void @llvm.lifetime.end.p0(i64 16, ptr nonnull %1) #9
  ret void

.preheader:                                       ; preds = %.preheader30, %._crit_edge
  %indvars.iv54 = phi i64 [ 2, %.preheader30 ], [ %indvars.iv.next55, %._crit_edge ]
  %.339 = phi ptr [ %.241, %.preheader30 ], [ %24, %._crit_edge ]
  br label %20

19:                                               ; preds = %._crit_edge
  br i1 %17, label %.preheader30, label %18, !llvm.loop !159

._crit_edge:                                      ; preds = %20
  %indvars.iv.next55 = add nuw nsw i64 %indvars.iv54, 1
  %exitcond57.not = icmp eq i64 %indvars.iv.next55, 8
  br i1 %exitcond57.not, label %19, label %.preheader, !llvm.loop !160

20:                                               ; preds = %.preheader, %20
  %indvars.iv50 = phi i64 [ %indvars.iv48, %.preheader ], [ %indvars.iv.next51, %20 ]
  %.437 = phi ptr [ %.339, %.preheader ], [ %24, %20 ]
  %21 = getelementptr inbounds nuw [2 x [8 x [4 x %struct.HuffmanCodebook]]], ptr @at9_huffman_coeffs, i64 0, i64 %indvars.iv48, i64 %indvars.iv54, i64 %indvars.iv50
  %22 = load i32, ptr %21, align 16, !tbaa !156
  %23 = sext i32 %22 to i64
  %24 = getelementptr inbounds [2 x i8], ptr %.437, i64 %23
  %25 = getelementptr inbounds nuw i8, ptr %.437, i64 1
  %26 = call ptr @ff_vlc_init_tables_from_lengths(ptr noundef nonnull %1, i32 noundef 9, i32 noundef %22, ptr noundef nonnull %25, i32 noundef 2, ptr noundef %.437, i32 noundef 2, i32 noundef 1, i32 noundef 0, i32 noundef 0) #9
  %27 = getelementptr inbounds nuw [2 x [8 x [4 x ptr]]], ptr @coeff_vlc, i64 0, i64 %indvars.iv48, i64 %indvars.iv54, i64 %indvars.iv50
  store ptr %26, ptr %27, align 8, !tbaa !94
  %indvars.iv.next51 = add nuw nsw i64 %indvars.iv50, 1
  %exitcond53.not = icmp eq i64 %indvars.iv.next51, 4
  br i1 %exitcond53.not, label %._crit_edge, label %20, !llvm.loop !161
}